target datalayout = "e-m:e-p270:32:32-p271:32:32-p272:64:64-i64:64-i128:128-f80:128-n8:16:32:64-S128"
target triple = "x86_64-pc-linux-gnu"

%union.pthread_mutex_t = type { %struct.__pthread_mutex_s }
%struct.__pthread_mutex_s = type { i32, i32, i32, i32, i32, i16, i16, %struct.__pthread_internal_list }
%struct.__pthread_internal_list = type { ptr, ptr }
%struct.agent_arg_t = type { i32, i16, i32, i8, ptr, ptr, i16, i32, ptr, i16 }
%struct.queued_request_t = type { ptr, i64, i64 }

@.str.3 = private unnamed_addr constant [29 x i8] c"%s: pthread_mutex_lock(): %m\00", align 1
@.str.6 = private unnamed_addr constant [8 x i8] c"agent.c\00", align 1
@.str.7 = private unnamed_addr constant [31 x i8] c"%s: pthread_mutex_unlock(): %m\00", align 1
@cache_build_time = internal global i64 0, align 8
@rpc_stat_counts = internal global ptr null, align 8
@stat_type_count = internal global i32 0, align 4
@rpc_stat_types = internal global ptr null, align 8
@rpc_count = internal global i32 0, align 4
@__func__.agent_pack_pending_rpc_stats = private unnamed_addr constant [29 x i8] c"agent_pack_pending_rpc_stats\00", align 1
@rpc_host_list = internal global ptr null, align 8
@rpc_type_list = internal global ptr null, align 8
@retry_mutex = internal global %union.pthread_mutex_t zeroinitializer, align 8
@retry_list = internal global ptr null, align 8

; Function Attrs: nounwind uwtable
define dso_local void @agent_pack_pending_rpc_stats(ptr noundef %0) #0 {
  %2 = alloca ptr, align 8
  %3 = alloca i64, align 8
  %4 = alloca i32, align 4
  %5 = alloca ptr, align 8
  %6 = alloca ptr, align 8
  %7 = alloca ptr, align 8
  %8 = alloca i32, align 4
  %9 = alloca i32, align 4
  store ptr %0, ptr %2, align 8
  call void @llvm.lifetime.start.p0(i64 8, ptr %3) #10
  call void @llvm.lifetime.start.p0(i64 4, ptr %4) #10
  call void @llvm.lifetime.start.p0(i64 8, ptr %5) #10
  store ptr null, ptr %5, align 8
  call void @llvm.lifetime.start.p0(i64 8, ptr %6) #10
  store ptr null, ptr %6, align 8
  call void @llvm.lifetime.start.p0(i64 8, ptr %7) #10
  %10 = call i64 @time(ptr noundef null) #10
  store i64 %10, ptr %3, align 8
  %11 = load i64, ptr %3, align 8
  %12 = load i64, ptr @cache_build_time, align 8
  %13 = call double @difftime(i64 noundef %11, i64 noundef %12) #11
  %14 = fcmp ole double %13, 1.000000e+00
  br i1 %14, label %15, label %16

15:                                               ; preds = %1
  br label %143

16:                                               ; preds = %1
  %17 = load i64, ptr %3, align 8
  store i64 %17, ptr @cache_build_time, align 8
  %18 = load ptr, ptr @rpc_stat_counts, align 8
  %19 = icmp ne ptr %18, null
  br i1 %19, label %20, label %23

20:                                               ; preds = %16
  store i32 0, ptr @stat_type_count, align 4
  %21 = load ptr, ptr @rpc_stat_counts, align 8
  call void @llvm.memset.p0.i64(ptr align 4 %21, i8 0, i64 400, i1 false)
  %22 = load ptr, ptr @rpc_stat_types, align 8
  call void @llvm.memset.p0.i64(ptr align 4 %22, i8 0, i64 400, i1 false)
  store i32 0, ptr @rpc_count, align 4
  br label %41

23:                                               ; preds = %16
  store i32 0, ptr @stat_type_count, align 4
  %24 = call ptr @slurm_xcalloc(i64 noundef 100, i64 noundef 4, i1 noundef zeroext true, i1 noundef zeroext false, ptr noundef @.str.6, i32 noundef 1707, ptr noundef @__func__.agent_pack_pending_rpc_stats)
  store ptr %24, ptr @rpc_stat_counts, align 8
  %25 = call ptr @slurm_xcalloc(i64 noundef 100, i64 noundef 4, i1 noundef zeroext true, i1 noundef zeroext false, ptr noundef @.str.6, i32 noundef 1708, ptr noundef @__func__.agent_pack_pending_rpc_stats)
  store ptr %25, ptr @rpc_stat_types, align 8
  store i32 0, ptr @rpc_count, align 4
  %26 = call ptr @slurm_xcalloc(i64 noundef 25, i64 noundef 8, i1 noundef zeroext true, i1 noundef zeroext false, ptr noundef @.str.6, i32 noundef 1711, ptr noundef @__func__.agent_pack_pending_rpc_stats)
  store ptr %26, ptr @rpc_host_list, align 8
  store i32 0, ptr %4, align 4
  br label %27

27:                                               ; preds = %36, %23
  %28 = load i32, ptr %4, align 4
  %29 = icmp slt i32 %28, 25
  br i1 %29, label %30, label %39

30:                                               ; preds = %27
  %31 = call ptr @slurm_xcalloc(i64 noundef 1, i64 noundef 80, i1 noundef zeroext true, i1 noundef zeroext false, ptr noundef @.str.6, i32 noundef 1713, ptr noundef @__func__.agent_pack_pending_rpc_stats)
  %32 = load ptr, ptr @rpc_host_list, align 8
  %33 = load i32, ptr %4, align 4
  %34 = sext i32 %33 to i64
  %35 = getelementptr inbounds ptr, ptr %32, i64 %34
  store ptr %31, ptr %35, align 8
  br label %36

36:                                               ; preds = %30
  %37 = load i32, ptr %4, align 4
  %38 = add nsw i32 %37, 1
  store i32 %38, ptr %4, align 4
  br label %27, !llvm.loop !28

39:                                               ; preds = %27
  %40 = call ptr @slurm_xcalloc(i64 noundef 25, i64 noundef 4, i1 noundef zeroext true, i1 noundef zeroext false, ptr noundef @.str.6, i32 noundef 1715, ptr noundef @__func__.agent_pack_pending_rpc_stats)
  store ptr %40, ptr @rpc_type_list, align 8
  br label %41

41:                                               ; preds = %39, %20
  br label %42

42:                                               ; preds = %41
  call void @llvm.lifetime.start.p0(i64 4, ptr %8) #10
  %43 = call i32 @pthread_mutex_lock(ptr noundef @retry_mutex) #10
  store i32 %43, ptr %8, align 4
  %44 = load i32, ptr %8, align 4
  %45 = icmp ne i32 %44, 0
  br i1 %45, label %46, label %49

46:                                               ; preds = %42
  %47 = load i32, ptr %8, align 4
  %48 = call ptr @__errno_location() #11
  store i32 %47, ptr %48, align 4
  call void (ptr, ...) @fatal_abort(ptr noundef @.str.3, ptr noundef @__func__.agent_pack_pending_rpc_stats) #12
  unreachable

49:                                               ; preds = %42
  call void @llvm.lifetime.end.p0(i64 4, ptr %8) #10
  br label %50

50:                                               ; preds = %49
  br label %51

51:                                               ; preds = %50
  %52 = load ptr, ptr @retry_list, align 8
  %53 = icmp ne ptr %52, null
  br i1 %53, label %54, label %132

54:                                               ; preds = %51
  %55 = load ptr, ptr @retry_list, align 8
  %56 = call ptr @list_iterator_create(ptr noundef %55)
  store ptr %56, ptr %7, align 8
  br label %57

57:                                               ; preds = %129, %54
  %58 = load ptr, ptr %7, align 8
  %59 = call ptr @list_next(ptr noundef %58)
  store ptr %59, ptr %5, align 8
  %60 = icmp ne ptr %59, null
  br i1 %60, label %61, label %130

61:                                               ; preds = %57
  %62 = load ptr, ptr %5, align 8
  %63 = getelementptr inbounds nuw %struct.queued_request_t, ptr %62, i32 0, i32 0
  %64 = load ptr, ptr %63, align 8
  store ptr %64, ptr %6, align 8
  %65 = load i32, ptr @rpc_count, align 4
  %66 = icmp ult i32 %65, 25
  br i1 %66, label %67, label %86

67:                                               ; preds = %61
  %68 = load ptr, ptr %6, align 8
  %69 = getelementptr inbounds nuw %struct.agent_arg_t, ptr %68, i32 0, i32 7
  %70 = load i32, ptr %69, align 4
  %71 = load ptr, ptr @rpc_type_list, align 8
  %72 = load i32, ptr @rpc_count, align 4
  %73 = zext i32 %72 to i64
  %74 = getelementptr inbounds nuw i32, ptr %71, i64 %73
  store i32 %70, ptr %74, align 4
  %75 = load ptr, ptr %6, align 8
  %76 = getelementptr inbounds nuw %struct.agent_arg_t, ptr %75, i32 0, i32 5
  %77 = load ptr, ptr %76, align 8
  %78 = load ptr, ptr @rpc_host_list, align 8
  %79 = load i32, ptr @rpc_count, align 4
  %80 = zext i32 %79 to i64
  %81 = getelementptr inbounds nuw ptr, ptr %78, i64 %80
  %82 = load ptr, ptr %81, align 8
  %83 = call i64 @hostlist_ranged_string(ptr noundef %77, i64 noundef 80, ptr noundef %82)
  %84 = load i32, ptr @rpc_count, align 4
  %85 = add i32 %84, 1
  store i32 %85, ptr @rpc_count, align 4
  br label %86

86:                                               ; preds = %67, %61
  store i32 0, ptr %4, align 4
  br label %87

87:                                               ; preds = %126, %86
  %88 = load i32, ptr %4, align 4
  %89 = icmp slt i32 %88, 100
  br i1 %89, label %90, label %129

90:                                               ; preds = %87
  %91 = load ptr, ptr @rpc_stat_types, align 8
  %92 = load i32, ptr %4, align 4
  %93 = sext i32 %92 to i64
  %94 = getelementptr inbounds i32, ptr %91, i64 %93
  %95 = load i32, ptr %94, align 4
  %96 = icmp eq i32 %95, 0
  br i1 %96, label %97, label %107

97:                                               ; preds = %90
  %98 = load ptr, ptr %6, align 8
  %99 = getelementptr inbounds nuw %struct.agent_arg_t, ptr %98, i32 0, i32 7
  %100 = load i32, ptr %99, align 4
  %101 = load ptr, ptr @rpc_stat_types, align 8
  %102 = load i32, ptr %4, align 4
  %103 = sext i32 %102 to i64
  %104 = getelementptr inbounds i32, ptr %101, i64 %103
  store i32 %100, ptr %104, align 4
  %105 = load i32, ptr @stat_type_count, align 4
  %106 = add i32 %105, 1
  store i32 %106, ptr @stat_type_count, align 4
  br label %119

107:                                              ; preds = %90
  %108 = load ptr, ptr @rpc_stat_types, align 8
  %109 = load i32, ptr %4, align 4
  %110 = sext i32 %109 to i64
  %111 = getelementptr inbounds i32, ptr %108, i64 %110
  %112 = load i32, ptr %111, align 4
  %113 = load ptr, ptr %6, align 8
  %114 = getelementptr inbounds nuw %struct.agent_arg_t, ptr %113, i32 0, i32 7
  %115 = load i32, ptr %114, align 4
  %116 = icmp ne i32 %112, %115
  br i1 %116, label %117, label %118

117:                                              ; preds = %107
  br label %126

118:                                              ; preds = %107
  br label %119

119:                                              ; preds = %118, %97
  %120 = load ptr, ptr @rpc_stat_counts, align 8
  %121 = load i32, ptr %4, align 4
  %122 = sext i32 %121 to i64
  %123 = getelementptr inbounds i32, ptr %120, i64 %122
  %124 = load i32, ptr %123, align 4
  %125 = add i32 %124, 1
  store i32 %125, ptr %123, align 4
  br label %129

126:                                              ; preds = %117
  %127 = load i32, ptr %4, align 4
  %128 = add nsw i32 %127, 1
  store i32 %128, ptr %4, align 4
  br label %87, !llvm.loop !29

129:                                              ; preds = %119, %87
  br label %57, !llvm.loop !30

130:                                              ; preds = %57
  %131 = load ptr, ptr %7, align 8
  call void @list_iterator_destroy(ptr noundef %131)
  br label %132

132:                                              ; preds = %130, %51
  br label %133

133:                                              ; preds = %132
  call void @llvm.lifetime.start.p0(i64 4, ptr %9) #10
  %134 = call i32 @pthread_mutex_unlock(ptr noundef @retry_mutex) #10
  store i32 %134, ptr %9, align 4
  %135 = load i32, ptr %9, align 4
  %136 = icmp ne i32 %135, 0
  br i1 %136, label %137, label %140

137:                                              ; preds = %133
  %138 = load i32, ptr %9, align 4
  %139 = call ptr @__errno_location() #11
  store i32 %138, ptr %139, align 4
  call void (ptr, ...) @fatal_abort(ptr noundef @.str.7, ptr noundef @__func__.agent_pack_pending_rpc_stats) #12
  unreachable

140:                                              ; preds = %133
  call void @llvm.lifetime.end.p0(i64 4, ptr %9) #10
  br label %141

141:                                              ; preds = %140
  br label %142

142:                                              ; preds = %141
  br label %143

143:                                              ; preds = %142, %15
  %144 = load ptr, ptr @rpc_stat_types, align 8
  %145 = load i32, ptr @stat_type_count, align 4
  %146 = load ptr, ptr %2, align 8
  call void @pack32_array(ptr noundef %144, i32 noundef %145, ptr noundef %146)
  %147 = load ptr, ptr @rpc_stat_counts, align 8
  %148 = load i32, ptr @stat_type_count, align 4
  %149 = load ptr, ptr %2, align 8
  call void @pack32_array(ptr noundef %147, i32 noundef %148, ptr noundef %149)
  %150 = load ptr, ptr @rpc_type_list, align 8
  %151 = load i32, ptr @rpc_count, align 4
  %152 = load ptr, ptr %2, align 8
  call void @pack32_array(ptr noundef %150, i32 noundef %151, ptr noundef %152)
  %153 = load ptr, ptr @rpc_host_list, align 8
  %154 = load i32, ptr @rpc_count, align 4
  %155 = load ptr, ptr %2, align 8
  call void @packstr_array(ptr noundef %153, i32 noundef %154, ptr noundef %155)
  call void @llvm.lifetime.end.p0(i64 8, ptr %7) #10
  call void @llvm.lifetime.end.p0(i64 8, ptr %6) #10
  call void @llvm.lifetime.end.p0(i64 8, ptr %5) #10
  call void @llvm.lifetime.end.p0(i64 4, ptr %4) #10
  call void @llvm.lifetime.end.p0(i64 8, ptr %3) #10
  ret void
}