; Function Attrs: nounwind uwtable
define dso_local void @agent_pack_pending_rpc_stats(ptr noundef %0) local_unnamed_addr #0 {
  %2 = tail call i64 @time(ptr noundef null) #14
  %3 = load i64, ptr @cache_build_time, align 8
  %4 = tail call double @difftime(i64 noundef %2, i64 noundef %3) #15
  %5 = fcmp ugt double %4, 1.000000e+00
  br i1 %5, label %6, label %71

6:                                                ; preds = %1
  store i64 %2, ptr @cache_build_time, align 8
  %7 = load ptr, ptr @rpc_stat_counts, align 8
  %.not = icmp eq ptr %7, null
  store i32 0, ptr @stat_type_count, align 4
  br i1 %.not, label %10, label %8

8:                                                ; preds = %6
  tail call void @llvm.memset.p0.i64(ptr noundef nonnull align 4 dereferenceable(400) %7, i8 0, i64 400, i1 false)
  %9 = load ptr, ptr @rpc_stat_types, align 8
  tail call void @llvm.memset.p0.i64(ptr noundef nonnull align 4 dereferenceable(400) %9, i8 0, i64 400, i1 false)
  store i32 0, ptr @rpc_count, align 4
  br label %20

10:                                               ; preds = %6
  %11 = tail call ptr @slurm_xcalloc(i64 noundef 100, i64 noundef 4, i1 noundef zeroext true, i1 noundef zeroext false, ptr noundef nonnull @.str.6, i32 noundef 1707, ptr noundef nonnull @__func__.agent_pack_pending_rpc_stats) #14
  store ptr %11, ptr @rpc_stat_counts, align 8
  %12 = tail call ptr @slurm_xcalloc(i64 noundef 100, i64 noundef 4, i1 noundef zeroext true, i1 noundef zeroext false, ptr noundef nonnull @.str.6, i32 noundef 1708, ptr noundef nonnull @__func__.agent_pack_pending_rpc_stats) #14
  store ptr %12, ptr @rpc_stat_types, align 8
  store i32 0, ptr @rpc_count, align 4
  %13 = tail call ptr @slurm_xcalloc(i64 noundef 25, i64 noundef 8, i1 noundef zeroext true, i1 noundef zeroext false, ptr noundef nonnull @.str.6, i32 noundef 1711, ptr noundef nonnull @__func__.agent_pack_pending_rpc_stats) #14
  store ptr %13, ptr @rpc_host_list, align 8
  br label %14

14:                                               ; preds = %10, %14
  %indvars.iv = phi i64 [ 0, %10 ], [ %indvars.iv.next, %14 ]
  %15 = tail call ptr @slurm_xcalloc(i64 noundef 1, i64 noundef 80, i1 noundef zeroext true, i1 noundef zeroext false, ptr noundef nonnull @.str.6, i32 noundef 1713, ptr noundef nonnull @__func__.agent_pack_pending_rpc_stats) #14
  %16 = load ptr, ptr @rpc_host_list, align 8
  %17 = getelementptr inbounds nuw ptr, ptr %16, i64 %indvars.iv
  store ptr %15, ptr %17, align 8
  %indvars.iv.next = add nuw nsw i64 %indvars.iv, 1
  %exitcond.not = icmp eq i64 %indvars.iv.next, 25
  br i1 %exitcond.not, label %18, label %14, !llvm.loop !35

18:                                               ; preds = %14
  %19 = tail call ptr @slurm_xcalloc(i64 noundef 25, i64 noundef 4, i1 noundef zeroext true, i1 noundef zeroext false, ptr noundef nonnull @.str.6, i32 noundef 1715, ptr noundef nonnull @__func__.agent_pack_pending_rpc_stats) #14
  store ptr %19, ptr @rpc_type_list, align 8
  br label %20

20:                                               ; preds = %8, %18
  %21 = tail call i32 @pthread_mutex_lock(ptr noundef nonnull @retry_mutex) #14
  %.not31 = icmp eq i32 %21, 0
  br i1 %.not31, label %24, label %22

22:                                               ; preds = %20
  %23 = tail call ptr @__errno_location() #15
  store i32 %21, ptr %23, align 4
  tail call void (ptr, ...) @fatal_abort(ptr noundef nonnull @.str.3, ptr noundef nonnull @__func__.agent_pack_pending_rpc_stats) #16
  unreachable

24:                                               ; preds = %20
  %25 = load ptr, ptr @retry_list, align 8
  %.not32 = icmp eq ptr %25, null
  br i1 %.not32, label %67, label %26

26:                                               ; preds = %24
  %27 = tail call ptr @list_iterator_create(ptr noundef nonnull %25) #14
  %28 = tail call ptr @list_next(ptr noundef %27) #14
  %.not3344 = icmp eq ptr %28, null
  br i1 %.not3344, label %._crit_edge, label %.lr.ph

.lr.ph:                                           ; preds = %26, %.loopexit
  %29 = phi ptr [ %66, %.loopexit ], [ %28, %26 ]
  %30 = load ptr, ptr %29, align 8
  %31 = load i32, ptr @rpc_count, align 4
  %32 = icmp ult i32 %31, 25
  br i1 %32, label %33, label %47

33:                                               ; preds = %.lr.ph
  %34 = getelementptr inbounds nuw i8, ptr %30, i64 36
  %35 = load i32, ptr %34, align 4
  %36 = load ptr, ptr @rpc_type_list, align 8
  %37 = zext nneg i32 %31 to i64
  %38 = getelementptr inbounds nuw i32, ptr %36, i64 %37
  store i32 %35, ptr %38, align 4
  %39 = getelementptr inbounds nuw i8, ptr %30, i64 24
  %40 = load ptr, ptr %39, align 8
  %41 = load ptr, ptr @rpc_host_list, align 8
  %42 = getelementptr inbounds nuw ptr, ptr %41, i64 %37
  %43 = load ptr, ptr %42, align 8
  %44 = tail call i64 @hostlist_ranged_string(ptr noundef %40, i64 noundef 80, ptr noundef %43) #14
  %45 = load i32, ptr @rpc_count, align 4
  %46 = add i32 %45, 1
  store i32 %46, ptr @rpc_count, align 4
  br label %47

47:                                               ; preds = %33, %.lr.ph
  %48 = load ptr, ptr @rpc_stat_types, align 8
  %49 = getelementptr inbounds nuw i8, ptr %30, i64 36
  br label %51

50:                                               ; preds = %60
  %indvars.iv.next49 = add nuw nsw i64 %indvars.iv48, 1
  %exitcond51.not = icmp eq i64 %indvars.iv.next49, 100
  br i1 %exitcond51.not, label %.loopexit, label %51, !llvm.loop !36

51:                                               ; preds = %47, %50
  %indvars.iv48 = phi i64 [ 0, %47 ], [ %indvars.iv.next49, %50 ]
  %52 = getelementptr inbounds nuw i32, ptr %48, i64 %indvars.iv48
  %53 = load i32, ptr %52, align 4
  %54 = icmp eq i32 %53, 0
  br i1 %54, label %55, label %60

55:                                               ; preds = %51
  %56 = getelementptr inbounds nuw i32, ptr %48, i64 %indvars.iv48
  %57 = load i32, ptr %49, align 4
  store i32 %57, ptr %56, align 4
  %58 = load i32, ptr @stat_type_count, align 4
  %59 = add i32 %58, 1
  store i32 %59, ptr @stat_type_count, align 4
  br label %.loopexit36

60:                                               ; preds = %51
  %61 = load i32, ptr %49, align 4
  %.not35 = icmp eq i32 %53, %61
  br i1 %.not35, label %.loopexit36, label %50

.loopexit36:                                      ; preds = %60, %55
  %62 = load ptr, ptr @rpc_stat_counts, align 8
  %63 = getelementptr inbounds nuw i32, ptr %62, i64 %indvars.iv48
  %64 = load i32, ptr %63, align 4
  %65 = add i32 %64, 1
  store i32 %65, ptr %63, align 4
  br label %.loopexit

.loopexit:                                        ; preds = %50, %.loopexit36
  %66 = tail call ptr @list_next(ptr noundef %27) #14
  %.not33 = icmp eq ptr %66, null
  br i1 %.not33, label %._crit_edge, label %.lr.ph, !llvm.loop !37

._crit_edge:                                      ; preds = %.loopexit, %26
  tail call void @list_iterator_destroy(ptr noundef %27) #14
  br label %67

67:                                               ; preds = %24, %._crit_edge
  %68 = tail call i32 @pthread_mutex_unlock(ptr noundef nonnull @retry_mutex) #14
  %.not34 = icmp eq i32 %68, 0
  br i1 %.not34, label %71, label %69

69:                                               ; preds = %67
  %70 = tail call ptr @__errno_location() #15
  store i32 %68, ptr %70, align 4
  tail call void (ptr, ...) @fatal_abort(ptr noundef nonnull @.str.7, ptr noundef nonnull @__func__.agent_pack_pending_rpc_stats) #16
  unreachable

71:                                               ; preds = %67, %1
  %72 = load ptr, ptr @rpc_stat_types, align 8
  %73 = load i32, ptr @stat_type_count, align 4
  tail call void @pack32_array(ptr noundef %72, i32 noundef %73, ptr noundef %0) #14
  %74 = load ptr, ptr @rpc_stat_counts, align 8
  %75 = load i32, ptr @stat_type_count, align 4
  tail call void @pack32_array(ptr noundef %74, i32 noundef %75, ptr noundef %0) #14
  %76 = load ptr, ptr @rpc_type_list, align 8
  %77 = load i32, ptr @rpc_count, align 4
  tail call void @pack32_array(ptr noundef %76, i32 noundef %77, ptr noundef %0) #14
  %78 = load ptr, ptr @rpc_host_list, align 8
  %79 = load i32, ptr @rpc_count, align 4
  tail call void @packstr_array(ptr noundef %78, i32 noundef %79, ptr noundef %0) #14
  ret void
}